target datalayout = "e-m:e-p270:32:32-p271:32:32-p272:64:64-i64:64-i128:128-f80:128-n8:16:32:64-S128"
target triple = "x86_64-unknown-linux-gnu"

@sz_index2size_tab = external global [235 x i64], align 16

; Function Attrs: nounwind uwtable
define internal i32 @arenas_lextent_i_size_ctl(ptr noundef %tsd, ptr noundef %mib, i64 noundef %miblen, ptr noundef %oldp, ptr noundef %oldlenp, ptr noundef %newp, i64 noundef %newlen) #0 {
entry:
  %index.addr.i20 = alloca i32, align 4
  %index.addr.i18 = alloca i32, align 4
  %ret.i = alloca i64, align 8
  %index.addr.i = alloca i32, align 4
  %tsd.addr = alloca ptr, align 8
  %mib.addr = alloca ptr, align 8
  %miblen.addr = alloca i64, align 8
  %oldp.addr = alloca ptr, align 8
  %oldlenp.addr = alloca ptr, align 8
  %newp.addr = alloca ptr, align 8
  %newlen.addr = alloca i64, align 8
  %ret = alloca i32, align 4
  %oldval = alloca i64, align 8
  %copylen = alloca i64, align 8
  store ptr %tsd, ptr %tsd.addr, align 8
  store ptr %mib, ptr %mib.addr, align 8
  store i64 %miblen, ptr %miblen.addr, align 8
  store ptr %oldp, ptr %oldp.addr, align 8
  store ptr %oldlenp, ptr %oldlenp.addr, align 8
  store ptr %newp, ptr %newp.addr, align 8
  store i64 %newlen, ptr %newlen.addr, align 8
  br label %do.body

do.body:                                          ; preds = %entry
  %0 = load ptr, ptr %newp.addr, align 8
  %cmp = icmp ne ptr %0, null
  br i1 %cmp, label %if.then, label %lor.lhs.false

lor.lhs.false:                                    ; preds = %do.body
  %1 = load i64, ptr %newlen.addr, align 8
  %cmp1 = icmp ne i64 %1, 0
  br i1 %cmp1, label %if.then, label %if.end

if.then:                                          ; preds = %lor.lhs.false, %do.body
  store i32 1, ptr %ret, align 4
  br label %label_return

if.end:                                           ; preds = %lor.lhs.false
  br label %do.end

do.end:                                           ; preds = %if.end
  %2 = load ptr, ptr %mib.addr, align 8
  %arrayidx = getelementptr inbounds i64, ptr %2, i64 2
  %3 = load i64, ptr %arrayidx, align 8
  %conv = trunc i64 %3 to i32
  %conv2 = zext i32 %conv to i64
  %add = add i64 39, %conv2
  %conv3 = trunc i64 %add to i32
  store i32 %conv3, ptr %index.addr.i, align 4
  %4 = load i32, ptr %index.addr.i, align 4
  store i32 %4, ptr %index.addr.i18, align 4
  %5 = load i32, ptr %index.addr.i18, align 4
  store i32 %5, ptr %index.addr.i20, align 4
  %6 = load i32, ptr %index.addr.i20, align 4
  %idxprom.i = zext i32 %6 to i64
  %arrayidx.i = getelementptr inbounds [235 x i64], ptr @sz_index2size_tab, i64 0, i64 %idxprom.i
  %7 = load i64, ptr %arrayidx.i, align 8
  store i64 %7, ptr %ret.i, align 8
  %8 = load i64, ptr %ret.i, align 8
  store i64 %8, ptr %oldval, align 8
  br label %do.body4

do.body4:                                         ; preds = %do.end
  %9 = load ptr, ptr %oldp.addr, align 8
  %cmp5 = icmp ne ptr %9, null
  br i1 %cmp5, label %land.lhs.true, label %if.end16

land.lhs.true:                                    ; preds = %do.body4
  %10 = load ptr, ptr %oldlenp.addr, align 8
  %cmp7 = icmp ne ptr %10, null
  br i1 %cmp7, label %if.then9, label %if.end16

if.then9:                                         ; preds = %land.lhs.true
  %11 = load ptr, ptr %oldlenp.addr, align 8
  %12 = load i64, ptr %11, align 8
  %cmp10 = icmp ne i64 %12, 8
  br i1 %cmp10, label %if.then12, label %if.end15

if.then12:                                        ; preds = %if.then9
  %13 = load ptr, ptr %oldlenp.addr, align 8
  %14 = load i64, ptr %13, align 8
  %cmp13 = icmp ule i64 8, %14
  br i1 %cmp13, label %cond.true, label %cond.false

cond.true:                                        ; preds = %if.then12
  br label %cond.end

cond.false:                                       ; preds = %if.then12
  %15 = load ptr, ptr %oldlenp.addr, align 8
  %16 = load i64, ptr %15, align 8
  br label %cond.end

cond.end:                                         ; preds = %cond.false, %cond.true
  %cond = phi i64 [ 8, %cond.true ], [ %16, %cond.false ]
  store i64 %cond, ptr %copylen, align 8
  %17 = load ptr, ptr %oldp.addr, align 8
  %18 = load i64, ptr %copylen, align 8
  call void @llvm.memcpy.p0.p0.i64(ptr align 1 %17, ptr align 1 %oldval, i64 %18, i1 false)
  %19 = load i64, ptr %copylen, align 8
  %20 = load ptr, ptr %oldlenp.addr, align 8
  store i64 %19, ptr %20, align 8
  store i32 22, ptr %ret, align 4
  br label %label_return

if.end15:                                         ; preds = %if.then9
  %21 = load i64, ptr %oldval, align 8
  %22 = load ptr, ptr %oldp.addr, align 8
  store i64 %21, ptr %22, align 8
  br label %if.end16

if.end16:                                         ; preds = %if.end15, %land.lhs.true, %do.body4
  br label %do.end17

do.end17:                                         ; preds = %if.end16
  store i32 0, ptr %ret, align 4
  br label %label_return

label_return:                                     ; preds = %do.end17, %cond.end, %if.then
  %23 = load i32, ptr %ret, align 4
  ret i32 %23
}