; Function Attrs: mustprogress nofree norecurse nosync nounwind willreturn memory(read, argmem: readwrite, inaccessiblemem: none) uwtable
define internal noundef i32 @arenas_lextent_i_size_ctl(ptr nocapture readnone %tsd, ptr nocapture noundef readonly %mib, i64 %miblen, ptr noundef writeonly %oldp, ptr noundef %oldlenp, ptr noundef readnone %newp, i64 noundef %newlen) #10 {
entry:
  %oldval = alloca i64, align 8
  %cmp = icmp ne ptr %newp, null
  %cmp1 = icmp ne i64 %newlen, 0
  %or.cond = or i1 %cmp, %cmp1
  br i1 %or.cond, label %label_return, label %do.end

do.end:                                           ; preds = %entry
  %arrayidx = getelementptr inbounds i8, ptr %mib, i64 16
  %0 = load i64, ptr %arrayidx, align 8
  %conv3 = add i64 %0, 39
  %idxprom.i = and i64 %conv3, 4294967295
  %arrayidx.i = getelementptr inbounds [235 x i64], ptr @sz_index2size_tab, i64 0, i64 %idxprom.i
  %1 = load i64, ptr %arrayidx.i, align 8
  store i64 %1, ptr %oldval, align 8
  %cmp5 = icmp ne ptr %oldp, null
  %cmp7 = icmp ne ptr %oldlenp, null
  %or.cond1 = and i1 %cmp5, %cmp7
  br i1 %or.cond1, label %if.then9, label %label_return

if.then9:                                         ; preds = %do.end
  %2 = load i64, ptr %oldlenp, align 8
  %cmp10.not = icmp eq i64 %2, 8
  br i1 %cmp10.not, label %if.end15, label %if.then12

if.then12:                                        ; preds = %if.then9
  %spec.select = tail call i64 @llvm.umin.i64(i64 %2, i64 8)
  call void @llvm.memcpy.p0.p0.i64(ptr nonnull align 1 %oldp, ptr nonnull align 8 %oldval, i64 %spec.select, i1 false)
  store i64 %spec.select, ptr %oldlenp, align 8
  br label %label_return

if.end15:                                         ; preds = %if.then9
  store i64 %1, ptr %oldp, align 8
  br label %label_return

label_return:                                     ; preds = %if.end15, %do.end, %entry, %if.then12
  %ret.0 = phi i32 [ 22, %if.then12 ], [ 1, %entry ], [ 0, %do.end ], [ 0, %if.end15 ]
  ret i32 %ret.0
}